; Function Attrs: mustprogress nounwind uwtable
define internal void @_ZN4leanL35finalize_get_disabled_trace_classesEPv(ptr noundef %0) #4 personality ptr @__gxx_personality_v0 {
  %2 = icmp eq ptr %0, null
  br i1 %2, label %28, label %3

3:                                                ; preds = %1
  %4 = load ptr, ptr %0, align 8, !tbaa !68
  %5 = getelementptr inbounds nuw i8, ptr %0, i64 8
  %6 = load ptr, ptr %5, align 8, !tbaa !66
  %.not4.i.i.i = icmp eq ptr %4, %6
  br i1 %.not4.i.i.i, label %_ZSt8_DestroyIPN4lean4nameES1_EvT_S3_RSaIT0_E.exit.i, label %.lr.ph.i.i.i

.lr.ph.i.i.i:                                     ; preds = %3, %_ZSt8_DestroyIN4lean4nameEEvPT_.exit.i.i.i
  %.05.i.i.i = phi ptr [ %20, %_ZSt8_DestroyIN4lean4nameEEvPT_.exit.i.i.i ], [ %4, %3 ]
  %7 = load ptr, ptr %.05.i.i.i, align 8, !tbaa !3
  %8 = ptrtoint ptr %7 to i64
  %9 = and i64 %8, 1
  %.not.i.i.i.i.i.i = icmp eq i64 %9, 0
  br i1 %.not.i.i.i.i.i.i, label %10, label %_ZSt8_DestroyIN4lean4nameEEvPT_.exit.i.i.i

10:                                               ; preds = %.lr.ph.i.i.i
  %11 = load i32, ptr %7, align 4, !tbaa !8
  %12 = icmp sgt i32 %11, 1
  br i1 %12, label %13, label %15, !prof !11

13:                                               ; preds = %10
  %14 = add nsw i32 %11, -1
  store i32 %14, ptr %7, align 4, !tbaa !8
  br label %_ZSt8_DestroyIN4lean4nameEEvPT_.exit.i.i.i

15:                                               ; preds = %10
  %.not.i.i.i.i.i.i.i = icmp eq i32 %11, 0
  br i1 %.not.i.i.i.i.i.i.i, label %_ZSt8_DestroyIN4lean4nameEEvPT_.exit.i.i.i, label %16

16:                                               ; preds = %15
  invoke void @lean_dec_ref_cold(ptr noundef nonnull %7)
          to label %_ZSt8_DestroyIN4lean4nameEEvPT_.exit.i.i.i unwind label %17

17:                                               ; preds = %16
  %18 = landingpad { ptr, i32 }
          catch ptr null
  %19 = extractvalue { ptr, i32 } %18, 0
  tail call void @__clang_call_terminate(ptr %19) #21
  unreachable

_ZSt8_DestroyIN4lean4nameEEvPT_.exit.i.i.i:       ; preds = %16, %15, %13, %.lr.ph.i.i.i
  %20 = getelementptr inbounds nuw i8, ptr %.05.i.i.i, i64 8
  %.not.i.i.i = icmp eq ptr %20, %6
  br i1 %.not.i.i.i, label %_ZSt8_DestroyIPN4lean4nameES1_EvT_S3_RSaIT0_E.exitthread-pre-split.i, label %.lr.ph.i.i.i, !llvm.loop !83

_ZSt8_DestroyIPN4lean4nameES1_EvT_S3_RSaIT0_E.exitthread-pre-split.i: ; preds = %_ZSt8_DestroyIN4lean4nameEEvPT_.exit.i.i.i
  %.pr.i = load ptr, ptr %0, align 8, !tbaa !68
  br label %_ZSt8_DestroyIPN4lean4nameES1_EvT_S3_RSaIT0_E.exit.i

_ZSt8_DestroyIPN4lean4nameES1_EvT_S3_RSaIT0_E.exit.i: ; preds = %_ZSt8_DestroyIPN4lean4nameES1_EvT_S3_RSaIT0_E.exitthread-pre-split.i, %3
  %21 = phi ptr [ %.pr.i, %_ZSt8_DestroyIPN4lean4nameES1_EvT_S3_RSaIT0_E.exitthread-pre-split.i ], [ %4, %3 ]
  %.not.i.i1.i = icmp eq ptr %21, null
  br i1 %.not.i.i1.i, label %_ZNSt6vectorIN4lean4nameESaIS1_EED2Ev.exit, label %22

22:                                               ; preds = %_ZSt8_DestroyIPN4lean4nameES1_EvT_S3_RSaIT0_E.exit.i
  %23 = getelementptr inbounds nuw i8, ptr %0, i64 16
  %24 = load ptr, ptr %23, align 8, !tbaa !122
  %25 = ptrtoint ptr %24 to i64
  %26 = ptrtoint ptr %21 to i64
  %27 = sub i64 %25, %26
  tail call void @_ZdlPvm(ptr noundef nonnull %21, i64 noundef %27) #22
  br label %_ZNSt6vectorIN4lean4nameESaIS1_EED2Ev.exit

_ZNSt6vectorIN4lean4nameESaIS1_EED2Ev.exit:       ; preds = %_ZSt8_DestroyIPN4lean4nameES1_EvT_S3_RSaIT0_E.exit.i, %22
  tail call void @_ZdlPvm(ptr noundef nonnull %0, i64 noundef 24) #22
  br label %28

28:                                               ; preds = %_ZNSt6vectorIN4lean4nameESaIS1_EED2Ev.exit, %1
  %29 = tail call align 8 ptr @llvm.threadlocal.address.p0(ptr align 8 @_ZN4leanL33get_disabled_trace_classes_tlocalE)
  store ptr null, ptr %29, align 8, !tbaa !56
  ret void
}